target datalayout = "e-m:e-p270:32:32-p271:32:32-p272:64:64-i64:64-i128:128-f80:128-n8:16:32:64-S128"
target triple = "x86_64-pc-linux-gnu"

%struct.avifRWData = type { ptr, i64 }
%struct.avifImage = type { i32, i32, i32, i32, i32, i32, [3 x ptr], [3 x i32], i32, ptr, i32, i32, i32, %struct.avifRWData, i16, i16, i16, %struct.avifContentLightLevelInformationBox, i32, %struct.avifPixelAspectRatioBox, %struct.avifCleanApertureBox, %struct.avifImageRotation, %struct.avifImageMirror, %struct.avifRWData, %struct.avifRWData }
%struct.avifContentLightLevelInformationBox = type { i16, i16 }
%struct.avifPixelAspectRatioBox = type { i32, i32 }
%struct.avifCleanApertureBox = type { i32, i32, i32, i32, i32, i32, i32, i32 }
%struct.avifImageRotation = type { i8 }
%struct.avifImageMirror = type { i8 }

@.str.54 = private unnamed_addr constant [62 x i8] c"%s cell %d has invalid dimensions: expected %dx%d found %dx%d\00", align 1
@.str.55 = private unnamed_addr constant [9 x i8] c"gain map\00", align 1
@.str.56 = private unnamed_addr constant [6 x i8] c"image\00", align 1
@.str.57 = private unnamed_addr constant [176 x i8] c"all grid cells should have the same value for: depth, yuvFormat, yuvRange, colorPrimaries, transferCharacteristics, matrixCoefficients, alphaPlane presence, alphaPremultiplied\00", align 1
@.str.58 = private unnamed_addr constant [97 x i8] c"the last %s cell can be smaller but not larger than the other cells which are %dx%d, found %dx%d\00", align 1

; Function Attrs: nounwind uwtable
define internal i32 @avifGridHeight(i32 noundef %0, ptr noundef %1, ptr noundef %2) #0 {
  %4 = alloca i32, align 4
  %5 = alloca ptr, align 8
  %6 = alloca ptr, align 8
  store i32 %0, ptr %4, align 4
  store ptr %1, ptr %5, align 8
  store ptr %2, ptr %6, align 8
  %7 = load i32, ptr %4, align 4
  %8 = sub i32 %7, 1
  %9 = load ptr, ptr %5, align 8
  %10 = getelementptr inbounds nuw %struct.avifImage, ptr %9, i32 0, i32 1
  %11 = load i32, ptr %10, align 4
  %12 = mul i32 %8, %11
  %13 = load ptr, ptr %6, align 8
  %14 = getelementptr inbounds nuw %struct.avifImage, ptr %13, i32 0, i32 1
  %15 = load i32, ptr %14, align 4
  %16 = add i32 %12, %15
  ret i32 %16
}

; Function Attrs: nounwind uwtable
define internal i32 @avifGridWidth(i32 noundef %0, ptr noundef %1, ptr noundef %2) #0 {
  %4 = alloca i32, align 4
  %5 = alloca ptr, align 8
  %6 = alloca ptr, align 8
  store i32 %0, ptr %4, align 4
  store ptr %1, ptr %5, align 8
  store ptr %2, ptr %6, align 8
  %7 = load i32, ptr %4, align 4
  %8 = sub i32 %7, 1
  %9 = load ptr, ptr %5, align 8
  %10 = getelementptr inbounds nuw %struct.avifImage, ptr %9, i32 0, i32 0
  %11 = load i32, ptr %10, align 8
  %12 = mul i32 %8, %11
  %13 = load ptr, ptr %6, align 8
  %14 = getelementptr inbounds nuw %struct.avifImage, ptr %13, i32 0, i32 0
  %15 = load i32, ptr %14, align 8
  %16 = add i32 %12, %15
  ret i32 %16
}

; Function Attrs: nounwind uwtable
define internal i32 @avifValidateGrid(i32 noundef %0, i32 noundef %1, ptr noundef %2, i32 noundef %3, ptr noundef %4) #0 {
  %6 = alloca i32, align 4
  %7 = alloca i32, align 4
  %8 = alloca i32, align 4
  %9 = alloca ptr, align 8
  %10 = alloca i32, align 4
  %11 = alloca ptr, align 8
  %12 = alloca i32, align 4
  %13 = alloca ptr, align 8
  %14 = alloca ptr, align 8
  %15 = alloca i32, align 4
  %16 = alloca i32, align 4
  %17 = alloca i32, align 4
  %18 = alloca i32, align 4
  %19 = alloca i32, align 4
  %20 = alloca ptr, align 8
  %21 = alloca i32, align 4
  %22 = alloca i32, align 4
  store i32 %0, ptr %7, align 4
  store i32 %1, ptr %8, align 4
  store ptr %2, ptr %9, align 8
  store i32 %3, ptr %10, align 4
  store ptr %4, ptr %11, align 8
  %23 = load i32, ptr %7, align 4
  %24 = load i32, ptr %8, align 4
  %25 = mul i32 %23, %24
  store i32 %25, ptr %12, align 4
  %26 = load ptr, ptr %9, align 8
  %27 = getelementptr inbounds ptr, ptr %26, i64 0
  %28 = load ptr, ptr %27, align 8
  store ptr %28, ptr %13, align 8
  %29 = load ptr, ptr %9, align 8
  %30 = load i32, ptr %12, align 4
  %31 = sub i32 %30, 1
  %32 = zext i32 %31 to i64
  %33 = getelementptr inbounds ptr, ptr %29, i64 %32
  %34 = load ptr, ptr %33, align 8
  store ptr %34, ptr %14, align 8
  %35 = load ptr, ptr %13, align 8
  %36 = getelementptr inbounds nuw %struct.avifImage, ptr %35, i32 0, i32 0
  %37 = load i32, ptr %36, align 8
  store i32 %37, ptr %15, align 4
  %38 = load ptr, ptr %13, align 8
  %39 = getelementptr inbounds nuw %struct.avifImage, ptr %38, i32 0, i32 1
  %40 = load i32, ptr %39, align 4
  store i32 %40, ptr %16, align 4
  %41 = load i32, ptr %7, align 4
  %42 = load ptr, ptr %13, align 8
  %43 = load ptr, ptr %14, align 8
  %44 = call i32 @avifGridWidth(i32 noundef %41, ptr noundef %42, ptr noundef %43)
  store i32 %44, ptr %17, align 4
  %45 = load i32, ptr %8, align 4
  %46 = load ptr, ptr %13, align 8
  %47 = load ptr, ptr %14, align 8
  %48 = call i32 @avifGridHeight(i32 noundef %45, ptr noundef %46, ptr noundef %47)
  store i32 %48, ptr %18, align 4
  store i32 0, ptr %19, align 4
  br label %49

49:                                               ; preds = %198, %5
  %50 = load i32, ptr %19, align 4
  %51 = load i32, ptr %12, align 4
  %52 = icmp ult i32 %50, %51
  br i1 %52, label %53, label %201

53:                                               ; preds = %49
  %54 = load ptr, ptr %9, align 8
  %55 = load i32, ptr %19, align 4
  %56 = zext i32 %55 to i64
  %57 = getelementptr inbounds ptr, ptr %54, i64 %56
  %58 = load ptr, ptr %57, align 8
  store ptr %58, ptr %20, align 8
  %59 = load i32, ptr %19, align 4
  %60 = add i32 %59, 1
  %61 = load i32, ptr %7, align 4
  %62 = urem i32 %60, %61
  %63 = icmp ne i32 %62, 0
  br i1 %63, label %64, label %66

64:                                               ; preds = %53
  %65 = load i32, ptr %15, align 4
  br label %70

66:                                               ; preds = %53
  %67 = load ptr, ptr %14, align 8
  %68 = getelementptr inbounds nuw %struct.avifImage, ptr %67, i32 0, i32 0
  %69 = load i32, ptr %68, align 8
  br label %70

70:                                               ; preds = %66, %64
  %71 = phi i32 [ %65, %64 ], [ %69, %66 ]
  store i32 %71, ptr %21, align 4
  %72 = load i32, ptr %19, align 4
  %73 = load i32, ptr %12, align 4
  %74 = load i32, ptr %7, align 4
  %75 = sub i32 %73, %74
  %76 = icmp ult i32 %72, %75
  br i1 %76, label %77, label %79

77:                                               ; preds = %70
  %78 = load i32, ptr %16, align 4
  br label %83

79:                                               ; preds = %70
  %80 = load ptr, ptr %14, align 8
  %81 = getelementptr inbounds nuw %struct.avifImage, ptr %80, i32 0, i32 1
  %82 = load i32, ptr %81, align 4
  br label %83

83:                                               ; preds = %79, %77
  %84 = phi i32 [ %78, %77 ], [ %82, %79 ]
  store i32 %84, ptr %22, align 4
  %85 = load ptr, ptr %20, align 8
  %86 = getelementptr inbounds nuw %struct.avifImage, ptr %85, i32 0, i32 0
  %87 = load i32, ptr %86, align 8
  %88 = load i32, ptr %21, align 4
  %89 = icmp ne i32 %87, %88
  br i1 %89, label %96, label %90

90:                                               ; preds = %83
  %91 = load ptr, ptr %20, align 8
  %92 = getelementptr inbounds nuw %struct.avifImage, ptr %91, i32 0, i32 1
  %93 = load i32, ptr %92, align 4
  %94 = load i32, ptr %22, align 4
  %95 = icmp ne i32 %93, %94
  br i1 %95, label %96, label %110

96:                                               ; preds = %90, %83
  %97 = load ptr, ptr %11, align 8
  %98 = load i32, ptr %10, align 4
  %99 = icmp ne i32 %98, 0
  %100 = select i1 %99, ptr @.str.55, ptr @.str.56
  %101 = load i32, ptr %19, align 4
  %102 = load i32, ptr %21, align 4
  %103 = load i32, ptr %22, align 4
  %104 = load ptr, ptr %20, align 8
  %105 = getelementptr inbounds nuw %struct.avifImage, ptr %104, i32 0, i32 0
  %106 = load i32, ptr %105, align 8
  %107 = load ptr, ptr %20, align 8
  %108 = getelementptr inbounds nuw %struct.avifImage, ptr %107, i32 0, i32 1
  %109 = load i32, ptr %108, align 4
  call void (ptr, ptr, ...) @avifDiagnosticsPrintf(ptr noundef %97, ptr noundef @.str.54, ptr noundef %100, i32 noundef %101, i32 noundef %102, i32 noundef %103, i32 noundef %106, i32 noundef %109)
  store i32 18, ptr %6, align 4
  br label %242

110:                                              ; preds = %90
  %111 = load ptr, ptr %20, align 8
  %112 = getelementptr inbounds nuw %struct.avifImage, ptr %111, i32 0, i32 2
  %113 = load i32, ptr %112, align 8
  %114 = load ptr, ptr %13, align 8
  %115 = getelementptr inbounds nuw %struct.avifImage, ptr %114, i32 0, i32 2
  %116 = load i32, ptr %115, align 8
  %117 = icmp ne i32 %113, %116
  br i1 %117, label %188, label %118

118:                                              ; preds = %110
  %119 = load ptr, ptr %20, align 8
  %120 = getelementptr inbounds nuw %struct.avifImage, ptr %119, i32 0, i32 3
  %121 = load i32, ptr %120, align 4
  %122 = load ptr, ptr %13, align 8
  %123 = getelementptr inbounds nuw %struct.avifImage, ptr %122, i32 0, i32 3
  %124 = load i32, ptr %123, align 4
  %125 = icmp ne i32 %121, %124
  br i1 %125, label %188, label %126

126:                                              ; preds = %118
  %127 = load ptr, ptr %20, align 8
  %128 = getelementptr inbounds nuw %struct.avifImage, ptr %127, i32 0, i32 4
  %129 = load i32, ptr %128, align 8
  %130 = load ptr, ptr %13, align 8
  %131 = getelementptr inbounds nuw %struct.avifImage, ptr %130, i32 0, i32 4
  %132 = load i32, ptr %131, align 8
  %133 = icmp ne i32 %129, %132
  br i1 %133, label %188, label %134

134:                                              ; preds = %126
  %135 = load ptr, ptr %20, align 8
  %136 = getelementptr inbounds nuw %struct.avifImage, ptr %135, i32 0, i32 14
  %137 = load i16, ptr %136, align 8
  %138 = zext i16 %137 to i32
  %139 = load ptr, ptr %13, align 8
  %140 = getelementptr inbounds nuw %struct.avifImage, ptr %139, i32 0, i32 14
  %141 = load i16, ptr %140, align 8
  %142 = zext i16 %141 to i32
  %143 = icmp ne i32 %138, %142
  br i1 %143, label %188, label %144

144:                                              ; preds = %134
  %145 = load ptr, ptr %20, align 8
  %146 = getelementptr inbounds nuw %struct.avifImage, ptr %145, i32 0, i32 15
  %147 = load i16, ptr %146, align 2
  %148 = zext i16 %147 to i32
  %149 = load ptr, ptr %13, align 8
  %150 = getelementptr inbounds nuw %struct.avifImage, ptr %149, i32 0, i32 15
  %151 = load i16, ptr %150, align 2
  %152 = zext i16 %151 to i32
  %153 = icmp ne i32 %148, %152
  br i1 %153, label %188, label %154

154:                                              ; preds = %144
  %155 = load ptr, ptr %20, align 8
  %156 = getelementptr inbounds nuw %struct.avifImage, ptr %155, i32 0, i32 16
  %157 = load i16, ptr %156, align 4
  %158 = zext i16 %157 to i32
  %159 = load ptr, ptr %13, align 8
  %160 = getelementptr inbounds nuw %struct.avifImage, ptr %159, i32 0, i32 16
  %161 = load i16, ptr %160, align 4
  %162 = zext i16 %161 to i32
  %163 = icmp ne i32 %158, %162
  br i1 %163, label %188, label %164

164:                                              ; preds = %154
  %165 = load ptr, ptr %20, align 8
  %166 = getelementptr inbounds nuw %struct.avifImage, ptr %165, i32 0, i32 9
  %167 = load ptr, ptr %166, align 8
  %168 = icmp ne ptr %167, null
  %169 = xor i1 %168, true
  %170 = xor i1 %169, true
  %171 = zext i1 %170 to i32
  %172 = load ptr, ptr %13, align 8
  %173 = getelementptr inbounds nuw %struct.avifImage, ptr %172, i32 0, i32 9
  %174 = load ptr, ptr %173, align 8
  %175 = icmp ne ptr %174, null
  %176 = xor i1 %175, true
  %177 = xor i1 %176, true
  %178 = zext i1 %177 to i32
  %179 = icmp ne i32 %171, %178
  br i1 %179, label %188, label %180

180:                                              ; preds = %164
  %181 = load ptr, ptr %20, align 8
  %182 = getelementptr inbounds nuw %struct.avifImage, ptr %181, i32 0, i32 12
  %183 = load i32, ptr %182, align 8
  %184 = load ptr, ptr %13, align 8
  %185 = getelementptr inbounds nuw %struct.avifImage, ptr %184, i32 0, i32 12
  %186 = load i32, ptr %185, align 8
  %187 = icmp ne i32 %183, %186
  br i1 %187, label %188, label %190

188:                                              ; preds = %180, %164, %154, %144, %134, %126, %118, %110
  %189 = load ptr, ptr %11, align 8
  call void (ptr, ptr, ...) @avifDiagnosticsPrintf(ptr noundef %189, ptr noundef @.str.57)
  store i32 18, ptr %6, align 4
  br label %242

190:                                              ; preds = %180
  %191 = load ptr, ptr %20, align 8
  %192 = getelementptr inbounds nuw %struct.avifImage, ptr %191, i32 0, i32 6
  %193 = getelementptr inbounds [3 x ptr], ptr %192, i64 0, i64 0
  %194 = load ptr, ptr %193, align 8
  %195 = icmp ne ptr %194, null
  br i1 %195, label %197, label %196

196:                                              ; preds = %190
  store i32 3, ptr %6, align 4
  br label %242

197:                                              ; preds = %190
  br label %198

198:                                              ; preds = %197
  %199 = load i32, ptr %19, align 4
  %200 = add i32 %199, 1
  store i32 %200, ptr %19, align 4
  br label %49, !llvm.loop !46

201:                                              ; preds = %49
  %202 = load ptr, ptr %14, align 8
  %203 = getelementptr inbounds nuw %struct.avifImage, ptr %202, i32 0, i32 0
  %204 = load i32, ptr %203, align 8
  %205 = load i32, ptr %15, align 4
  %206 = icmp ugt i32 %204, %205
  br i1 %206, label %213, label %207

207:                                              ; preds = %201
  %208 = load ptr, ptr %14, align 8
  %209 = getelementptr inbounds nuw %struct.avifImage, ptr %208, i32 0, i32 1
  %210 = load i32, ptr %209, align 4
  %211 = load i32, ptr %16, align 4
  %212 = icmp ugt i32 %210, %211
  br i1 %212, label %213, label %226

213:                                              ; preds = %207, %201
  %214 = load ptr, ptr %11, align 8
  %215 = load i32, ptr %10, align 4
  %216 = icmp ne i32 %215, 0
  %217 = select i1 %216, ptr @.str.55, ptr @.str.56
  %218 = load i32, ptr %15, align 4
  %219 = load i32, ptr %16, align 4
  %220 = load ptr, ptr %14, align 8
  %221 = getelementptr inbounds nuw %struct.avifImage, ptr %220, i32 0, i32 0
  %222 = load i32, ptr %221, align 8
  %223 = load ptr, ptr %14, align 8
  %224 = getelementptr inbounds nuw %struct.avifImage, ptr %223, i32 0, i32 1
  %225 = load i32, ptr %224, align 4
  call void (ptr, ptr, ...) @avifDiagnosticsPrintf(ptr noundef %214, ptr noundef @.str.58, ptr noundef %217, i32 noundef %218, i32 noundef %219, i32 noundef %222, i32 noundef %225)
  store i32 18, ptr %6, align 4
  br label %242

226:                                              ; preds = %207
  %227 = load i32, ptr %12, align 4
  %228 = icmp ugt i32 %227, 1
  br i1 %228, label %229, label %241

229:                                              ; preds = %226
  %230 = load ptr, ptr %13, align 8
  %231 = getelementptr inbounds nuw %struct.avifImage, ptr %230, i32 0, i32 3
  %232 = load i32, ptr %231, align 4
  %233 = load i32, ptr %17, align 4
  %234 = load i32, ptr %18, align 4
  %235 = load i32, ptr %15, align 4
  %236 = load i32, ptr %16, align 4
  %237 = load ptr, ptr %11, align 8
  %238 = call i32 @avifAreGridDimensionsValid(i32 noundef %232, i32 noundef %233, i32 noundef %234, i32 noundef %235, i32 noundef %236, ptr noundef %237)
  %239 = icmp ne i32 %238, 0
  br i1 %239, label %241, label %240

240:                                              ; preds = %229
  store i32 18, ptr %6, align 4
  br label %242

241:                                              ; preds = %229, %226
  store i32 0, ptr %6, align 4
  br label %242

242:                                              ; preds = %241, %240, %213, %196, %188, %96
  %243 = load i32, ptr %6, align 4
  ret i32 %243
}