; Function Attrs: nounwind uwtable
define internal fastcc range(i32 0, 19) i32 @avifValidateGrid(i32 noundef %0, i32 noundef %1, ptr nocapture noundef readonly %2, ptr noundef %3) unnamed_addr #1 {
  %5 = mul nuw nsw i32 %1, %0
  %6 = load ptr, ptr %2, align 8
  %7 = sext i32 %5 to i64
  %8 = getelementptr ptr, ptr %2, i64 %7
  %9 = getelementptr i8, ptr %8, i64 -8
  %10 = load ptr, ptr %9, align 8
  %11 = load i32, ptr %6, align 8
  %12 = getelementptr inbounds nuw i8, ptr %6, i64 4
  %13 = load i32, ptr %12, align 4
  %.val89 = load i32, ptr %10, align 8
  %14 = add nsw i32 %0, -1
  %15 = mul i32 %11, %14
  %16 = add i32 %.val89, %15
  %17 = getelementptr i8, ptr %10, i64 4
  %.val91 = load i32, ptr %17, align 4
  %18 = add nsw i32 %1, -1
  %19 = mul i32 %13, %18
  %20 = add i32 %.val91, %19
  %21 = sub nsw i32 %5, %0
  %22 = getelementptr inbounds nuw i8, ptr %6, i64 8
  %23 = getelementptr inbounds nuw i8, ptr %6, i64 12
  %24 = getelementptr inbounds nuw i8, ptr %6, i64 16
  %25 = getelementptr inbounds nuw i8, ptr %6, i64 104
  %26 = getelementptr inbounds nuw i8, ptr %6, i64 106
  %27 = getelementptr inbounds nuw i8, ptr %6, i64 108
  %28 = getelementptr inbounds nuw i8, ptr %6, i64 64
  %29 = getelementptr inbounds nuw i8, ptr %6, i64 80
  %30 = zext i32 %21 to i64
  %wide.trip.count = zext i32 %5 to i64
  br label %31

31:                                               ; preds = %79, %4
  %indvars.iv = phi i64 [ %indvars.iv.next, %79 ], [ 0, %4 ]
  %exitcond.not = icmp eq i64 %indvars.iv, %wide.trip.count
  br i1 %exitcond.not, label %82, label %32

32:                                               ; preds = %31
  %33 = getelementptr inbounds ptr, ptr %2, i64 %indvars.iv
  %34 = load ptr, ptr %33, align 8
  %indvars.iv.next = add nuw nsw i64 %indvars.iv, 1
  %35 = trunc nuw i64 %indvars.iv.next to i32
  %36 = urem i32 %35, %0
  %.not77 = icmp eq i32 %36, 0
  %spec.select = select i1 %.not77, i32 %.val89, i32 %11
  %37 = icmp ult i64 %indvars.iv, %30
  %38 = select i1 %37, i32 %13, i32 %.val91
  %39 = load i32, ptr %34, align 8
  %.not78 = icmp eq i32 %39, %spec.select
  %40 = getelementptr inbounds nuw i8, ptr %34, i64 4
  %41 = load i32, ptr %40, align 4
  br i1 %.not78, label %42, label %split

42:                                               ; preds = %32
  %.not79 = icmp eq i32 %41, %38
  br i1 %.not79, label %44, label %split

split:                                            ; preds = %42, %32
  %.lcssa = phi i32 [ %39, %32 ], [ %spec.select, %42 ]
  %43 = trunc i64 %indvars.iv to i32
  tail call void (ptr, ptr, ...) @avifDiagnosticsPrintf(ptr noundef %3, ptr noundef nonnull @.str.54, ptr noundef nonnull @.str.56, i32 noundef %43, i32 noundef %spec.select, i32 noundef %38, i32 noundef %.lcssa, i32 noundef %41) #13
  br label %.loopexit

44:                                               ; preds = %42
  %45 = getelementptr inbounds nuw i8, ptr %34, i64 8
  %46 = load i32, ptr %45, align 8
  %47 = load i32, ptr %22, align 8
  %.not80 = icmp eq i32 %46, %47
  br i1 %.not80, label %48, label %78

48:                                               ; preds = %44
  %49 = getelementptr inbounds nuw i8, ptr %34, i64 12
  %50 = load i32, ptr %49, align 4
  %51 = load i32, ptr %23, align 4
  %.not81 = icmp eq i32 %50, %51
  br i1 %.not81, label %52, label %78

52:                                               ; preds = %48
  %53 = getelementptr inbounds nuw i8, ptr %34, i64 16
  %54 = load i32, ptr %53, align 8
  %55 = load i32, ptr %24, align 8
  %.not82 = icmp eq i32 %54, %55
  br i1 %.not82, label %56, label %78

56:                                               ; preds = %52
  %57 = getelementptr inbounds nuw i8, ptr %34, i64 104
  %58 = load i16, ptr %57, align 8
  %59 = load i16, ptr %25, align 8
  %.not83 = icmp eq i16 %58, %59
  br i1 %.not83, label %60, label %78

60:                                               ; preds = %56
  %61 = getelementptr inbounds nuw i8, ptr %34, i64 106
  %62 = load i16, ptr %61, align 2
  %63 = load i16, ptr %26, align 2
  %.not84 = icmp eq i16 %62, %63
  br i1 %.not84, label %64, label %78

64:                                               ; preds = %60
  %65 = getelementptr inbounds nuw i8, ptr %34, i64 108
  %66 = load i16, ptr %65, align 4
  %67 = load i16, ptr %27, align 4
  %.not85 = icmp eq i16 %66, %67
  br i1 %.not85, label %68, label %78

68:                                               ; preds = %64
  %69 = getelementptr inbounds nuw i8, ptr %34, i64 64
  %70 = load ptr, ptr %69, align 8
  %71 = icmp ne ptr %70, null
  %72 = load ptr, ptr %28, align 8
  %73 = icmp eq ptr %72, null
  %.not86 = xor i1 %71, %73
  br i1 %.not86, label %74, label %78

74:                                               ; preds = %68
  %75 = getelementptr inbounds nuw i8, ptr %34, i64 80
  %76 = load i32, ptr %75, align 8
  %77 = load i32, ptr %29, align 8
  %.not87 = icmp eq i32 %76, %77
  br i1 %.not87, label %79, label %78

78:                                               ; preds = %74, %68, %64, %60, %56, %52, %48, %44
  tail call void (ptr, ptr, ...) @avifDiagnosticsPrintf(ptr noundef %3, ptr noundef nonnull @.str.57) #13
  br label %.loopexit

79:                                               ; preds = %74
  %80 = getelementptr inbounds nuw i8, ptr %34, i64 24
  %81 = load ptr, ptr %80, align 8
  %.not88 = icmp eq ptr %81, null
  br i1 %.not88, label %.loopexit, label %31, !llvm.loop !48

82:                                               ; preds = %31
  %83 = icmp ugt i32 %.val89, %11
  %84 = icmp ugt i32 %.val91, %13
  %or.cond = select i1 %83, i1 true, i1 %84
  br i1 %or.cond, label %85, label %86

85:                                               ; preds = %82
  tail call void (ptr, ptr, ...) @avifDiagnosticsPrintf(ptr noundef %3, ptr noundef nonnull @.str.58, ptr noundef nonnull @.str.56, i32 noundef %11, i32 noundef %13, i32 noundef %.val89, i32 noundef %.val91) #13
  br label %.loopexit

86:                                               ; preds = %82
  %87 = icmp ugt i32 %5, 1
  br i1 %87, label %88, label %91

88:                                               ; preds = %86
  %89 = load i32, ptr %23, align 4
  %90 = tail call i32 @avifAreGridDimensionsValid(i32 noundef %89, i32 noundef %16, i32 noundef %20, i32 noundef %11, i32 noundef %13, ptr noundef %3) #13
  %.not = icmp eq i32 %90, 0
  br i1 %.not, label %.loopexit, label %91

91:                                               ; preds = %88, %86
  br label %.loopexit

.loopexit:                                        ; preds = %79, %88, %91, %85, %78, %split
  %.0 = phi i32 [ 18, %split ], [ 18, %78 ], [ 18, %85 ], [ 0, %91 ], [ 18, %88 ], [ 3, %79 ]
  ret i32 %.0
}